target datalayout = "e-m:e-p270:32:32-p271:32:32-p272:64:64-i64:64-i128:128-f80:128-n8:16:32:64-S128"
target triple = "x86_64-pc-linux-gnu"

%"class.clang::SourceLocation" = type { i32 }
%"class.clang::FileID" = type { i32 }
%"class.clang::edit::FileOffset" = type { %"class.clang::FileID", i32 }
%"class.clang::CharSourceRange" = type <{ %"class.clang::SourceRange", i8, [3 x i8] }>
%"class.clang::SourceRange" = type { %"class.clang::SourceLocation", %"class.clang::SourceLocation" }
%"class.clang::edit::Commit" = type { ptr, ptr, ptr, ptr, i8, %"class.llvm::SmallVector.74", %"class.llvm::BumpPtrAllocatorImpl" }
%"class.llvm::SmallVector.74" = type { %"class.llvm::SmallVectorImpl.75", %"struct.llvm::SmallVectorStorage.78" }
%"class.llvm::SmallVectorImpl.75" = type { %"class.llvm::SmallVectorTemplateBase.76" }
%"class.llvm::SmallVectorTemplateBase.76" = type { %"class.llvm::SmallVectorTemplateCommon.77" }
%"class.llvm::SmallVectorTemplateCommon.77" = type { %"class.llvm::SmallVectorBase" }
%"class.llvm::SmallVectorBase" = type { ptr, i32, i32 }
%"struct.llvm::SmallVectorStorage.78" = type { [448 x i8] }
%"class.llvm::BumpPtrAllocatorImpl" = type { ptr, ptr, %"class.llvm::SmallVector", %"class.llvm::SmallVector.1", i64, i64 }
%"class.llvm::SmallVector" = type { %"class.llvm::SmallVectorImpl", %"struct.llvm::SmallVectorStorage" }
%"class.llvm::SmallVectorImpl" = type { %"class.llvm::SmallVectorTemplateBase" }
%"class.llvm::SmallVectorTemplateBase" = type { %"class.llvm::SmallVectorTemplateCommon" }
%"class.llvm::SmallVectorTemplateCommon" = type { %"class.llvm::SmallVectorBase" }
%"struct.llvm::SmallVectorStorage" = type { [32 x i8] }
%"class.llvm::SmallVector.1" = type { %"class.llvm::SmallVectorImpl.2" }
%"class.llvm::SmallVectorImpl.2" = type { %"class.llvm::SmallVectorTemplateBase.3" }
%"class.llvm::SmallVectorTemplateBase.3" = type { %"class.llvm::SmallVectorTemplateCommon.4" }
%"class.llvm::SmallVectorTemplateCommon.4" = type { %"class.llvm::SmallVectorBase" }
%"struct.std::pair" = type { %"class.clang::FileID", i32 }

; Function Attrs: mustprogress nounwind uwtable
define linkonce_odr hidden noundef zeroext i1 @_ZNK5clang14SourceLocation7isValidEv(ptr noundef nonnull align 4 dereferenceable(4) %0) #0 comdat align 2 {
  %2 = alloca ptr, align 8
  store ptr %0, ptr %2, align 8
  %3 = load ptr, ptr %2, align 8
  %4 = getelementptr inbounds nuw %"class.clang::SourceLocation", ptr %3, i32 0, i32 0
  %5 = load i32, ptr %4, align 4
  %6 = icmp ne i32 %5, 0
  ret i1 %6
}

; Function Attrs: mustprogress nounwind uwtable
define linkonce_odr hidden noundef zeroext i1 @_ZNK5clang11SourceRange7isValidEv(ptr noundef nonnull align 4 dereferenceable(8) %0) #0 comdat align 2 {
  %2 = alloca ptr, align 8
  store ptr %0, ptr %2, align 8
  %3 = load ptr, ptr %2, align 8
  %4 = getelementptr inbounds nuw %"class.clang::SourceRange", ptr %3, i32 0, i32 0
  %5 = call noundef zeroext i1 @_ZNK5clang14SourceLocation7isValidEv(ptr noundef nonnull align 4 dereferenceable(4) %4)
  br i1 %5, label %6, label %9

6:                                                ; preds = %1
  %7 = getelementptr inbounds nuw %"class.clang::SourceRange", ptr %3, i32 0, i32 1
  %8 = call noundef zeroext i1 @_ZNK5clang14SourceLocation7isValidEv(ptr noundef nonnull align 4 dereferenceable(4) %7)
  br label %9

9:                                                ; preds = %6, %1
  %10 = phi i1 [ false, %1 ], [ %8, %6 ]
  ret i1 %10
}

; Function Attrs: mustprogress nounwind uwtable
define linkonce_odr hidden noundef zeroext i1 @_ZNK5clang6FileIDeqERKS0_(ptr noundef nonnull align 4 dereferenceable(4) %0, ptr noundef nonnull align 4 dereferenceable(4) %1) #0 comdat align 2 {
  %3 = alloca ptr, align 8
  %4 = alloca ptr, align 8
  store ptr %0, ptr %3, align 8
  store ptr %1, ptr %4, align 8
  %5 = load ptr, ptr %3, align 8
  %6 = getelementptr inbounds nuw %"class.clang::FileID", ptr %5, i32 0, i32 0
  %7 = load i32, ptr %6, align 4
  %8 = load ptr, ptr %4, align 8
  %9 = getelementptr inbounds nuw %"class.clang::FileID", ptr %8, i32 0, i32 0
  %10 = load i32, ptr %9, align 4
  %11 = icmp eq i32 %7, %10
  ret i1 %11
}

; Function Attrs: mustprogress nounwind uwtable
define linkonce_odr hidden noundef zeroext i1 @_ZN5clang6SrcMgr8isSystemENS0_18CharacteristicKindE(i32 noundef %0) #0 comdat {
  %2 = alloca i32, align 4
  store i32 %0, ptr %2, align 4
  %3 = load i32, ptr %2, align 4
  %4 = icmp ne i32 %3, 0
  br i1 %4, label %5, label %8

5:                                                ; preds = %1
  %6 = load i32, ptr %2, align 4
  %7 = icmp ne i32 %6, 3
  br label %8

8:                                                ; preds = %5, %1
  %9 = phi i1 [ false, %1 ], [ %7, %5 ]
  ret i1 %9
}

; Function Attrs: mustprogress nounwind uwtable
define linkonce_odr hidden noundef zeroext i1 @_ZNK5clang14SourceLocation9isInvalidEv(ptr noundef nonnull align 4 dereferenceable(4) %0) #0 comdat align 2 {
  %2 = alloca ptr, align 8
  store ptr %0, ptr %2, align 8
  %3 = load ptr, ptr %2, align 8
  %4 = getelementptr inbounds nuw %"class.clang::SourceLocation", ptr %3, i32 0, i32 0
  %5 = load i32, ptr %4, align 4
  %6 = icmp eq i32 %5, 0
  ret i1 %6
}

; Function Attrs: mustprogress nounwind uwtable
define linkonce_odr hidden i32 @_ZNK5clang11SourceRange6getEndEv(ptr noundef nonnull align 4 dereferenceable(8) %0) #0 comdat align 2 {
  %2 = alloca %"class.clang::SourceLocation", align 4
  %3 = alloca ptr, align 8
  store ptr %0, ptr %3, align 8
  %4 = load ptr, ptr %3, align 8
  %5 = getelementptr inbounds nuw %"class.clang::SourceRange", ptr %4, i32 0, i32 1
  call void @llvm.memcpy.p0.p0.i64(ptr align 4 %2, ptr align 4 %5, i64 4, i1 false)
  %6 = getelementptr inbounds nuw %"class.clang::SourceLocation", ptr %2, i32 0, i32 0
  %7 = load i32, ptr %6, align 4
  ret i32 %7
}

; Function Attrs: mustprogress nounwind uwtable
define linkonce_odr hidden i32 @_ZNK5clang11SourceRange8getBeginEv(ptr noundef nonnull align 4 dereferenceable(8) %0) #0 comdat align 2 {
  %2 = alloca %"class.clang::SourceLocation", align 4
  %3 = alloca ptr, align 8
  store ptr %0, ptr %3, align 8
  %4 = load ptr, ptr %3, align 8
  %5 = getelementptr inbounds nuw %"class.clang::SourceRange", ptr %4, i32 0, i32 0
  call void @llvm.memcpy.p0.p0.i64(ptr align 4 %2, ptr align 4 %5, i64 4, i1 false)
  %6 = getelementptr inbounds nuw %"class.clang::SourceLocation", ptr %2, i32 0, i32 0
  %7 = load i32, ptr %6, align 4
  ret i32 %7
}

; Function Attrs: mustprogress nounwind uwtable
define linkonce_odr hidden noundef zeroext i1 @_ZNK5clang15CharSourceRange7isValidEv(ptr noundef nonnull align 4 dereferenceable(9) %0) #0 comdat align 2 {
  %2 = alloca ptr, align 8
  store ptr %0, ptr %2, align 8
  %3 = load ptr, ptr %2, align 8
  %4 = getelementptr inbounds nuw %"class.clang::CharSourceRange", ptr %3, i32 0, i32 0
  %5 = call noundef zeroext i1 @_ZNK5clang11SourceRange7isValidEv(ptr noundef nonnull align 4 dereferenceable(8) %4)
  ret i1 %5
}

; Function Attrs: mustprogress nounwind uwtable
define linkonce_odr hidden void @_ZN5clang4edit10FileOffsetC2ENS_6FileIDEj(ptr noundef nonnull align 4 dereferenceable(8) %0, i32 %1, i32 noundef %2) unnamed_addr #0 comdat align 2 {
  %4 = alloca %"class.clang::FileID", align 4
  %5 = alloca ptr, align 8
  %6 = alloca i32, align 4
  %7 = getelementptr inbounds nuw %"class.clang::FileID", ptr %4, i32 0, i32 0
  store i32 %1, ptr %7, align 4
  store ptr %0, ptr %5, align 8
  store i32 %2, ptr %6, align 4
  %8 = load ptr, ptr %5, align 8
  %9 = getelementptr inbounds nuw %"class.clang::edit::FileOffset", ptr %8, i32 0, i32 0
  call void @llvm.memcpy.p0.p0.i64(ptr align 4 %9, ptr align 4 %4, i64 4, i1 false)
  %10 = getelementptr inbounds nuw %"class.clang::edit::FileOffset", ptr %8, i32 0, i32 1
  %11 = load i32, ptr %6, align 4
  store i32 %11, ptr %10, align 4
  ret void
}

; Function Attrs: mustprogress nounwind uwtable
define linkonce_odr hidden noundef zeroext i1 @_ZNK5clang6FileIDneERKS0_(ptr noundef nonnull align 4 dereferenceable(4) %0, ptr noundef nonnull align 4 dereferenceable(4) %1) #0 comdat align 2 {
  %3 = alloca ptr, align 8
  %4 = alloca ptr, align 8
  store ptr %0, ptr %3, align 8
  store ptr %1, ptr %4, align 8
  %5 = load ptr, ptr %3, align 8
  %6 = load ptr, ptr %4, align 8
  %7 = call noundef zeroext i1 @_ZNK5clang6FileIDeqERKS0_(ptr noundef nonnull align 4 dereferenceable(4) %5, ptr noundef nonnull align 4 dereferenceable(4) %6)
  %8 = xor i1 %7, true
  ret i1 %8
}

; Function Attrs: mustprogress nounwind uwtable
define linkonce_odr hidden i64 @_ZNK5clang15CharSourceRange10getAsRangeEv(ptr noundef nonnull align 4 dereferenceable(9) %0) #0 comdat align 2 {
  %2 = alloca %"class.clang::SourceRange", align 4
  %3 = alloca ptr, align 8
  store ptr %0, ptr %3, align 8
  %4 = load ptr, ptr %3, align 8
  %5 = getelementptr inbounds nuw %"class.clang::CharSourceRange", ptr %4, i32 0, i32 0
  call void @llvm.memcpy.p0.p0.i64(ptr align 4 %2, ptr align 4 %5, i64 8, i1 false)
  %6 = load i64, ptr %2, align 4
  ret i64 %6
}

; Function Attrs: mustprogress nounwind uwtable
define linkonce_odr hidden noundef zeroext i1 @_ZNK5clang13SourceManager16isInSystemHeaderENS_14SourceLocationE(ptr noundef nonnull align 8 dereferenceable(696) %0, i32 %1) #0 comdat align 2 {
  %3 = alloca i1, align 1
  %4 = alloca %"class.clang::SourceLocation", align 4
  %5 = alloca ptr, align 8
  %6 = alloca %"class.clang::SourceLocation", align 4
  %7 = getelementptr inbounds nuw %"class.clang::SourceLocation", ptr %4, i32 0, i32 0
  store i32 %1, ptr %7, align 4
  store ptr %0, ptr %5, align 8
  %8 = load ptr, ptr %5, align 8
  %9 = call noundef zeroext i1 @_ZNK5clang14SourceLocation9isInvalidEv(ptr noundef nonnull align 4 dereferenceable(4) %4)
  br i1 %9, label %10, label %11

10:                                               ; preds = %2
  store i1 false, ptr %3, align 1
  br label %16

11:                                               ; preds = %2
  call void @llvm.memcpy.p0.p0.i64(ptr align 4 %6, ptr align 4 %4, i64 4, i1 false)
  %12 = getelementptr inbounds nuw %"class.clang::SourceLocation", ptr %6, i32 0, i32 0
  %13 = load i32, ptr %12, align 4
  %14 = call noundef i32 @_ZNK5clang13SourceManager21getFileCharacteristicENS_14SourceLocationE(ptr noundef nonnull align 8 dereferenceable(696) %8, i32 %13)
  %15 = call noundef zeroext i1 @_ZN5clang6SrcMgr8isSystemENS0_18CharacteristicKindE(i32 noundef %14)
  store i1 %15, ptr %3, align 1
  br label %16

16:                                               ; preds = %11, %10
  %17 = load i1, ptr %3, align 1
  ret i1 %17
}

; Function Attrs: mustprogress nounwind uwtable
define linkonce_odr hidden i32 @_ZNK5clang15CharSourceRange6getEndEv(ptr noundef nonnull align 4 dereferenceable(9) %0) #0 comdat align 2 {
  %2 = alloca %"class.clang::SourceLocation", align 4
  %3 = alloca ptr, align 8
  store ptr %0, ptr %3, align 8
  %4 = load ptr, ptr %3, align 8
  %5 = getelementptr inbounds nuw %"class.clang::CharSourceRange", ptr %4, i32 0, i32 0
  %6 = call i32 @_ZNK5clang11SourceRange6getEndEv(ptr noundef nonnull align 4 dereferenceable(8) %5)
  %7 = getelementptr inbounds nuw %"class.clang::SourceLocation", ptr %2, i32 0, i32 0
  store i32 %6, ptr %7, align 4
  %8 = getelementptr inbounds nuw %"class.clang::SourceLocation", ptr %2, i32 0, i32 0
  %9 = load i32, ptr %8, align 4
  ret i32 %9
}

; Function Attrs: mustprogress nounwind uwtable
define linkonce_odr hidden noundef zeroext i1 @_ZNK5clang14SourceLocation9isMacroIDEv(ptr noundef nonnull align 4 dereferenceable(4) %0) #0 comdat align 2 {
  %2 = alloca ptr, align 8
  store ptr %0, ptr %2, align 8
  %3 = load ptr, ptr %2, align 8
  %4 = getelementptr inbounds nuw %"class.clang::SourceLocation", ptr %3, i32 0, i32 0
  %5 = load i32, ptr %4, align 4
  %6 = and i32 %5, -2147483648
  %7 = icmp ne i32 %6, 0
  ret i1 %7
}

; Function Attrs: mustprogress nounwind uwtable
define linkonce_odr hidden i32 @_ZNK5clang15CharSourceRange8getBeginEv(ptr noundef nonnull align 4 dereferenceable(9) %0) #0 comdat align 2 {
  %2 = alloca %"class.clang::SourceLocation", align 4
  %3 = alloca ptr, align 8
  store ptr %0, ptr %3, align 8
  %4 = load ptr, ptr %3, align 8
  %5 = getelementptr inbounds nuw %"class.clang::CharSourceRange", ptr %4, i32 0, i32 0
  %6 = call i32 @_ZNK5clang11SourceRange8getBeginEv(ptr noundef nonnull align 4 dereferenceable(8) %5)
  %7 = getelementptr inbounds nuw %"class.clang::SourceLocation", ptr %2, i32 0, i32 0
  store i32 %6, ptr %7, align 4
  %8 = getelementptr inbounds nuw %"class.clang::SourceLocation", ptr %2, i32 0, i32 0
  %9 = load i32, ptr %8, align 4
  ret i32 %9
}

; Function Attrs: mustprogress nounwind uwtable
define linkonce_odr hidden noundef zeroext i1 @_ZNK5clang15CharSourceRange9isInvalidEv(ptr noundef nonnull align 4 dereferenceable(9) %0) #0 comdat align 2 {
  %2 = alloca ptr, align 8
  store ptr %0, ptr %2, align 8
  %3 = load ptr, ptr %2, align 8
  %4 = call noundef zeroext i1 @_ZNK5clang15CharSourceRange7isValidEv(ptr noundef nonnull align 4 dereferenceable(9) %3)
  %5 = xor i1 %4, true
  ret i1 %5
}

; Function Attrs: mustprogress nounwind uwtable
define dso_local noundef zeroext i1 @_ZN5clang4edit6Commit14canRemoveRangeENS_15CharSourceRangeERNS0_10FileOffsetERj(ptr noundef nonnull align 8 dereferenceable(600) %0, i64 %1, i8 %2, ptr noundef nonnull align 4 dereferenceable(8) %3, ptr noundef nonnull align 4 dereferenceable(4) %4) #0 align 2 {
  %6 = alloca i1, align 1
  %7 = alloca %"class.clang::CharSourceRange", align 4
  %8 = alloca { i64, i8 }, align 4
  %9 = alloca ptr, align 8
  %10 = alloca ptr, align 8
  %11 = alloca ptr, align 8
  %12 = alloca ptr, align 8
  %13 = alloca %"class.clang::CharSourceRange", align 4
  %14 = alloca %"class.clang::CharSourceRange", align 4
  %15 = alloca { i64, i8 }, align 4
  %16 = alloca { i64, i8 }, align 8
  %17 = alloca %"class.clang::SourceLocation", align 4
  %18 = alloca %"class.clang::SourceLocation", align 4
  %19 = alloca %"class.clang::SourceLocation", align 4
  %20 = alloca %"class.clang::SourceLocation", align 4
  %21 = alloca %"class.clang::SourceRange", align 4
  %22 = alloca %"struct.std::pair", align 4
  %23 = alloca %"class.clang::SourceLocation", align 4
  %24 = alloca %"struct.std::pair", align 4
  %25 = alloca %"class.clang::SourceLocation", align 4
  %26 = alloca %"class.clang::edit::FileOffset", align 4
  %27 = alloca %"class.clang::FileID", align 4
  %28 = getelementptr inbounds nuw { i64, i8 }, ptr %8, i32 0, i32 0
  store i64 %1, ptr %28, align 4
  %29 = getelementptr inbounds nuw { i64, i8 }, ptr %8, i32 0, i32 1
  store i8 %2, ptr %29, align 4
  call void @llvm.memcpy.p0.p0.i64(ptr align 4 %7, ptr align 4 %8, i64 12, i1 false)
  store ptr %0, ptr %9, align 8
  store ptr %3, ptr %10, align 8
  store ptr %4, ptr %11, align 8
  %30 = load ptr, ptr %9, align 8
  %31 = getelementptr inbounds nuw %"class.clang::edit::Commit", ptr %30, i32 0, i32 0
  %32 = load ptr, ptr %31, align 8
  store ptr %32, ptr %12, align 8
  call void @llvm.memcpy.p0.p0.i64(ptr align 4 %14, ptr align 4 %7, i64 12, i1 false)
  %33 = load ptr, ptr %12, align 8
  %34 = getelementptr inbounds nuw %"class.clang::edit::Commit", ptr %30, i32 0, i32 1
  %35 = load ptr, ptr %34, align 8
  call void @llvm.memcpy.p0.p0.i64(ptr align 4 %15, ptr align 4 %14, i64 12, i1 false)
  %36 = getelementptr inbounds nuw { i64, i8 }, ptr %15, i32 0, i32 0
  %37 = load i64, ptr %36, align 4
  %38 = getelementptr inbounds nuw { i64, i8 }, ptr %15, i32 0, i32 1
  %39 = load i8, ptr %38, align 4
  %40 = call { i64, i8 } @_ZN5clang5Lexer17makeFileCharRangeENS_15CharSourceRangeERKNS_13SourceManagerERKNS_11LangOptionsE(i64 %37, i8 %39, ptr noundef nonnull align 8 dereferenceable(696) %33, ptr noundef nonnull align 8 dereferenceable(841) %35)
  store { i64, i8 } %40, ptr %16, align 8
  call void @llvm.memcpy.p0.p0.i64(ptr align 4 %13, ptr align 8 %16, i64 9, i1 false)
  call void @llvm.memcpy.p0.p0.i64(ptr align 4 %7, ptr align 4 %13, i64 9, i1 false)
  %41 = call noundef zeroext i1 @_ZNK5clang15CharSourceRange9isInvalidEv(ptr noundef nonnull align 4 dereferenceable(9) %7)
  br i1 %41, label %42, label %43

42:                                               ; preds = %5
  store i1 false, ptr %6, align 1
  br label %116

43:                                               ; preds = %5
  %44 = call i32 @_ZNK5clang15CharSourceRange8getBeginEv(ptr noundef nonnull align 4 dereferenceable(9) %7)
  %45 = getelementptr inbounds nuw %"class.clang::SourceLocation", ptr %17, i32 0, i32 0
  store i32 %44, ptr %45, align 4
  %46 = call noundef zeroext i1 @_ZNK5clang14SourceLocation9isMacroIDEv(ptr noundef nonnull align 4 dereferenceable(4) %17)
  br i1 %46, label %51, label %47

47:                                               ; preds = %43
  %48 = call i32 @_ZNK5clang15CharSourceRange6getEndEv(ptr noundef nonnull align 4 dereferenceable(9) %7)
  %49 = getelementptr inbounds nuw %"class.clang::SourceLocation", ptr %18, i32 0, i32 0
  store i32 %48, ptr %49, align 4
  %50 = call noundef zeroext i1 @_ZNK5clang14SourceLocation9isMacroIDEv(ptr noundef nonnull align 4 dereferenceable(4) %18)
  br label %51

51:                                               ; preds = %47, %43
  %52 = phi i1 [ true, %43 ], [ %50, %47 ]
  br i1 %52, label %53, label %54

53:                                               ; preds = %51
  store i1 false, ptr %6, align 1
  br label %116

54:                                               ; preds = %51
  %55 = load ptr, ptr %12, align 8
  %56 = call i32 @_ZNK5clang15CharSourceRange8getBeginEv(ptr noundef nonnull align 4 dereferenceable(9) %7)
  %57 = getelementptr inbounds nuw %"class.clang::SourceLocation", ptr %19, i32 0, i32 0
  store i32 %56, ptr %57, align 4
  %58 = getelementptr inbounds nuw %"class.clang::SourceLocation", ptr %19, i32 0, i32 0
  %59 = load i32, ptr %58, align 4
  %60 = call noundef zeroext i1 @_ZNK5clang13SourceManager16isInSystemHeaderENS_14SourceLocationE(ptr noundef nonnull align 8 dereferenceable(696) %55, i32 %59)
  br i1 %60, label %68, label %61

61:                                               ; preds = %54
  %62 = load ptr, ptr %12, align 8
  %63 = call i32 @_ZNK5clang15CharSourceRange6getEndEv(ptr noundef nonnull align 4 dereferenceable(9) %7)
  %64 = getelementptr inbounds nuw %"class.clang::SourceLocation", ptr %20, i32 0, i32 0
  store i32 %63, ptr %64, align 4
  %65 = getelementptr inbounds nuw %"class.clang::SourceLocation", ptr %20, i32 0, i32 0
  %66 = load i32, ptr %65, align 4
  %67 = call noundef zeroext i1 @_ZNK5clang13SourceManager16isInSystemHeaderENS_14SourceLocationE(ptr noundef nonnull align 8 dereferenceable(696) %62, i32 %66)
  br i1 %67, label %68, label %69

68:                                               ; preds = %61, %54
  store i1 false, ptr %6, align 1
  br label %116

69:                                               ; preds = %61
  %70 = getelementptr inbounds nuw %"class.clang::edit::Commit", ptr %30, i32 0, i32 2
  %71 = load ptr, ptr %70, align 8
  %72 = icmp ne ptr %71, null
  br i1 %72, label %73, label %80

73:                                               ; preds = %69
  %74 = getelementptr inbounds nuw %"class.clang::edit::Commit", ptr %30, i32 0, i32 2
  %75 = load ptr, ptr %74, align 8
  %76 = call i64 @_ZNK5clang15CharSourceRange10getAsRangeEv(ptr noundef nonnull align 4 dereferenceable(9) %7)
  store i64 %76, ptr %21, align 4
  %77 = load i64, ptr %21, align 4
  %78 = call noundef zeroext i1 @_ZNK5clang28PPConditionalDirectiveRecord35rangeIntersectsConditionalDirectiveENS_11SourceRangeE(ptr noundef nonnull align 8 dereferenceable(80) %75, i64 %77)
  br i1 %78, label %79, label %80

79:                                               ; preds = %73
  store i1 false, ptr %6, align 1
  br label %116

80:                                               ; preds = %73, %69
  %81 = load ptr, ptr %12, align 8
  %82 = call i32 @_ZNK5clang15CharSourceRange8getBeginEv(ptr noundef nonnull align 4 dereferenceable(9) %7)
  %83 = getelementptr inbounds nuw %"class.clang::SourceLocation", ptr %23, i32 0, i32 0
  store i32 %82, ptr %83, align 4
  %84 = getelementptr inbounds nuw %"class.clang::SourceLocation", ptr %23, i32 0, i32 0
  %85 = load i32, ptr %84, align 4
  %86 = call i64 @_ZNK5clang13SourceManager16getDecomposedLocENS_14SourceLocationE(ptr noundef nonnull align 8 dereferenceable(696) %81, i32 %85)
  store i64 %86, ptr %22, align 4
  %87 = load ptr, ptr %12, align 8
  %88 = call i32 @_ZNK5clang15CharSourceRange6getEndEv(ptr noundef nonnull align 4 dereferenceable(9) %7)
  %89 = getelementptr inbounds nuw %"class.clang::SourceLocation", ptr %25, i32 0, i32 0
  store i32 %88, ptr %89, align 4
  %90 = getelementptr inbounds nuw %"class.clang::SourceLocation", ptr %25, i32 0, i32 0
  %91 = load i32, ptr %90, align 4
  %92 = call i64 @_ZNK5clang13SourceManager16getDecomposedLocENS_14SourceLocationE(ptr noundef nonnull align 8 dereferenceable(696) %87, i32 %91)
  store i64 %92, ptr %24, align 4
  %93 = getelementptr inbounds nuw %"struct.std::pair", ptr %22, i32 0, i32 0
  %94 = getelementptr inbounds nuw %"struct.std::pair", ptr %24, i32 0, i32 0
  %95 = call noundef zeroext i1 @_ZNK5clang6FileIDneERKS0_(ptr noundef nonnull align 4 dereferenceable(4) %93, ptr noundef nonnull align 4 dereferenceable(4) %94)
  br i1 %95, label %102, label %96

96:                                               ; preds = %80
  %97 = getelementptr inbounds nuw %"struct.std::pair", ptr %22, i32 0, i32 1
  %98 = load i32, ptr %97, align 4
  %99 = getelementptr inbounds nuw %"struct.std::pair", ptr %24, i32 0, i32 1
  %100 = load i32, ptr %99, align 4
  %101 = icmp ugt i32 %98, %100
  br i1 %101, label %102, label %103

102:                                              ; preds = %96, %80
  store i1 false, ptr %6, align 1
  br label %116

103:                                              ; preds = %96
  %104 = getelementptr inbounds nuw %"struct.std::pair", ptr %22, i32 0, i32 0
  call void @llvm.memcpy.p0.p0.i64(ptr align 4 %27, ptr align 4 %104, i64 4, i1 false)
  %105 = getelementptr inbounds nuw %"struct.std::pair", ptr %22, i32 0, i32 1
  %106 = load i32, ptr %105, align 4
  %107 = getelementptr inbounds nuw %"class.clang::FileID", ptr %27, i32 0, i32 0
  %108 = load i32, ptr %107, align 4
  call void @_ZN5clang4edit10FileOffsetC2ENS_6FileIDEj(ptr noundef nonnull align 4 dereferenceable(8) %26, i32 %108, i32 noundef %106)
  %109 = load ptr, ptr %10, align 8
  call void @llvm.memcpy.p0.p0.i64(ptr align 4 %109, ptr align 4 %26, i64 8, i1 false)
  %110 = getelementptr inbounds nuw %"struct.std::pair", ptr %24, i32 0, i32 1
  %111 = load i32, ptr %110, align 4
  %112 = getelementptr inbounds nuw %"struct.std::pair", ptr %22, i32 0, i32 1
  %113 = load i32, ptr %112, align 4
  %114 = sub i32 %111, %113
  %115 = load ptr, ptr %11, align 8
  store i32 %114, ptr %115, align 4
  store i1 true, ptr %6, align 1
  br label %116

116:                                              ; preds = %103, %102, %79, %68, %53, %42
  %117 = load i1, ptr %6, align 1
  ret i1 %117
}