; Function Attrs: mustprogress nounwind uwtable
define dso_local noundef zeroext i1 @_ZN5clang4edit6Commit14canRemoveRangeENS_15CharSourceRangeERNS0_10FileOffsetERj(ptr nocapture noundef nonnull readonly align 8 dereferenceable(600) %0, i64 %1, i8 %2, ptr nocapture noundef nonnull writeonly align 4 dereferenceable(8) %3, ptr nocapture noundef nonnull writeonly align 4 dereferenceable(4) %4) local_unnamed_addr #0 align 2 {
  %6 = load ptr, ptr %0, align 8
  %7 = getelementptr inbounds nuw i8, ptr %0, i64 8
  %8 = load ptr, ptr %7, align 8
  %9 = tail call { i64, i8 } @_ZN5clang5Lexer17makeFileCharRangeENS_15CharSourceRangeERKNS_13SourceManagerERKNS_11LangOptionsE(i64 %1, i8 %2, ptr noundef nonnull align 8 dereferenceable(696) %6, ptr noundef nonnull align 8 dereferenceable(841) %8) #7
  %.fca.0.extract = extractvalue { i64, i8 } %9, 0
  %.sroa.041.0.extract.trunc = trunc i64 %.fca.0.extract to i32
  %.sroa.7.0.extract.shift = lshr i64 %.fca.0.extract, 32
  %.sroa.7.0.extract.trunc = trunc nuw i64 %.sroa.7.0.extract.shift to i32
  %10 = icmp slt i32 %.sroa.041.0.extract.trunc, 1
  %11 = icmp slt i64 %.fca.0.extract, 4294967296
  %or.cond45 = or i1 %11, %10
  br i1 %or.cond45, label %.critedge, label %_ZNK5clang13SourceManager16isInSystemHeaderENS_14SourceLocationE.exit

_ZNK5clang13SourceManager16isInSystemHeaderENS_14SourceLocationE.exit: ; preds = %5
  %12 = tail call noundef i32 @_ZNK5clang13SourceManager21getFileCharacteristicENS_14SourceLocationE(ptr noundef nonnull align 8 dereferenceable(696) %6, i32 %.sroa.041.0.extract.trunc) #7
  switch i32 %12, label %.critedge [
    i32 3, label %_ZNK5clang13SourceManager16isInSystemHeaderENS_14SourceLocationE.exit31
    i32 0, label %_ZNK5clang13SourceManager16isInSystemHeaderENS_14SourceLocationE.exit31
  ]

_ZNK5clang13SourceManager16isInSystemHeaderENS_14SourceLocationE.exit31: ; preds = %_ZNK5clang13SourceManager16isInSystemHeaderENS_14SourceLocationE.exit, %_ZNK5clang13SourceManager16isInSystemHeaderENS_14SourceLocationE.exit
  %13 = tail call noundef i32 @_ZNK5clang13SourceManager21getFileCharacteristicENS_14SourceLocationE(ptr noundef nonnull align 8 dereferenceable(696) %6, i32 %.sroa.7.0.extract.trunc) #7
  switch i32 %13, label %.critedge [
    i32 3, label %14
    i32 0, label %14
  ]

14:                                               ; preds = %_ZNK5clang13SourceManager16isInSystemHeaderENS_14SourceLocationE.exit31, %_ZNK5clang13SourceManager16isInSystemHeaderENS_14SourceLocationE.exit31
  %15 = getelementptr inbounds nuw i8, ptr %0, i64 16
  %16 = load ptr, ptr %15, align 8
  %.not = icmp eq ptr %16, null
  br i1 %.not, label %19, label %17

17:                                               ; preds = %14
  %18 = tail call noundef zeroext i1 @_ZNK5clang28PPConditionalDirectiveRecord35rangeIntersectsConditionalDirectiveENS_11SourceRangeE(ptr noundef nonnull align 8 dereferenceable(80) %16, i64 %.fca.0.extract) #7
  br i1 %18, label %.critedge, label %19

19:                                               ; preds = %17, %14
  %20 = tail call i64 @_ZNK5clang13SourceManager16getDecomposedLocENS_14SourceLocationE(ptr noundef nonnull align 8 dereferenceable(696) %6, i32 %.sroa.041.0.extract.trunc)
  %.sroa.037.0.extract.trunc = trunc i64 %20 to i32
  %.sroa.3.0.extract.shift = lshr i64 %20, 32
  %21 = tail call i64 @_ZNK5clang13SourceManager16getDecomposedLocENS_14SourceLocationE(ptr noundef nonnull align 8 dereferenceable(696) %6, i32 %.sroa.7.0.extract.trunc)
  %.sroa.034.0.extract.trunc = trunc i64 %21 to i32
  %.sroa.235.0.extract.shift = lshr i64 %21, 32
  %22 = icmp ne i32 %.sroa.037.0.extract.trunc, %.sroa.034.0.extract.trunc
  %23 = icmp ugt i64 %.sroa.3.0.extract.shift, %.sroa.235.0.extract.shift
  %or.cond46 = or i1 %22, %23
  br i1 %or.cond46, label %.critedge, label %24

24:                                               ; preds = %19
  %.sroa.235.0.extract.trunc = trunc nuw i64 %.sroa.235.0.extract.shift to i32
  %.sroa.3.0.extract.trunc = trunc nuw i64 %.sroa.3.0.extract.shift to i32
  store i64 %20, ptr %3, align 4
  %25 = sub i32 %.sroa.235.0.extract.trunc, %.sroa.3.0.extract.trunc
  store i32 %25, ptr %4, align 4
  br label %.critedge

.critedge:                                        ; preds = %_ZNK5clang13SourceManager16isInSystemHeaderENS_14SourceLocationE.exit31, %_ZNK5clang13SourceManager16isInSystemHeaderENS_14SourceLocationE.exit, %19, %17, %5, %24
  %.0 = phi i1 [ true, %24 ], [ false, %5 ], [ false, %_ZNK5clang13SourceManager16isInSystemHeaderENS_14SourceLocationE.exit31 ], [ false, %_ZNK5clang13SourceManager16isInSystemHeaderENS_14SourceLocationE.exit ], [ false, %17 ], [ false, %19 ]
  ret i1 %.0
}